target datalayout = "e-m:e-p270:32:32-p271:32:32-p272:64:64-i64:64-i128:128-f80:128-n8:16:32:64-S128"
target triple = "x86_64-pc-linux-gnu"

%struct.H5D_layout_ops_t = type { ptr, ptr, ptr, ptr, ptr, ptr, ptr, ptr, ptr, ptr, ptr, ptr, ptr }
%struct.H5D_t = type { %struct.H5O_loc_t, %struct.H5G_name_t, ptr }
%struct.H5O_loc_t = type { ptr, i64, i8 }
%struct.H5G_name_t = type { ptr, ptr, i32 }
%struct.H5D_shared_t = type { i64, i8, i64, ptr, ptr, i64, i64, %struct.H5D_dcpl_cache_t, %struct.H5O_layout_t, i8, i32, [32 x i64], [32 x i64], [32 x i64], %struct.anon.6, %struct.H5D_append_flush_t, ptr, ptr }
%struct.H5D_dcpl_cache_t = type { %struct.H5O_fill_t, %struct.H5O_pline_t, %struct.H5O_efl_t }
%struct.H5O_fill_t = type { %struct.H5O_shared_t, i32, ptr, i64, ptr, i32, i32, i8 }
%struct.H5O_shared_t = type { i32, ptr, i32, %union.anon.5 }
%union.anon.5 = type { %struct.H5O_mesg_loc_t }
%struct.H5O_mesg_loc_t = type { i32, i64 }
%struct.H5O_pline_t = type { %struct.H5O_shared_t, i32, i64, i64, ptr }
%struct.H5O_efl_t = type { i64, i64, i64, ptr }
%struct.H5O_layout_t = type { i32, i32, ptr, %union.anon, %struct.H5O_storage_t }
%union.anon = type { %struct.H5O_layout_chunk_t }
%struct.H5O_layout_chunk_t = type { i32, i8, i32, [33 x i32], i32, i32, i64, i64, [33 x i64], [33 x i64], [33 x i64], [33 x i64], %union.anon.0 }
%union.anon.0 = type { %struct.H5O_layout_chunk_earray_t }
%struct.H5O_layout_chunk_earray_t = type { %struct.anon.1, i32, [33 x i32], [33 x i64], [33 x i64] }
%struct.anon.1 = type { i8, i8, i8, i8, i8 }
%struct.H5O_storage_t = type { i32, %union.anon.3 }
%union.anon.3 = type { %struct.H5O_storage_virtual_t }
%struct.H5O_storage_virtual_t = type { %struct.H5HG_t, i64, ptr, i64, [32 x i64], i32, i64, i64, i64, i8 }
%struct.H5HG_t = type { i64, i64 }
%struct.anon.6 = type { %struct.H5D_rdcdc_t, %struct.H5D_rdcc_t }
%struct.H5D_rdcdc_t = type { ptr, i64, i64, i64, i8 }
%struct.H5D_rdcc_t = type { %struct.anon.7, i64, i64, double, ptr, ptr, ptr, i64, i32, %struct.H5D_chunk_cached_t, ptr, ptr, ptr, ptr, [32 x i64], [32 x i64], [32 x i32] }
%struct.anon.7 = type { i32, i32, i32, i32 }
%struct.H5D_chunk_cached_t = type { i8, [33 x i64], i64, i32, i64, i32 }
%struct.H5D_append_flush_t = type { i32, [32 x i64], ptr, ptr }
%struct.H5O_storage_virtual_ent_t = type { %struct.H5O_storage_virtual_srcdset_t, ptr, ptr, ptr, ptr, i64, i64, i64, i64, ptr, i64, i64, ptr, i64, i64, i32, i32, i64, i64, i64, i64, i32, i32 }
%struct.H5O_storage_virtual_srcdset_t = type { ptr, ptr, ptr, ptr, ptr, ptr, i8, ptr }

@H5D_init_g = external global i8, align 1
@H5_libterm_g = external global i8, align 1

; Function Attrs: nounwind uwtable
define internal zeroext i1 @H5D__virtual_is_data_cached(ptr noundef %0) #0 {
  %2 = alloca ptr, align 8
  %3 = alloca ptr, align 8
  %4 = alloca i64, align 8
  %5 = alloca i64, align 8
  %6 = alloca i8, align 1
  store ptr %0, ptr %2, align 8, !tbaa !76
  call void @llvm.lifetime.start.p0(i64 8, ptr %3) #10
  call void @llvm.lifetime.start.p0(i64 8, ptr %4) #10
  call void @llvm.lifetime.start.p0(i64 8, ptr %5) #10
  call void @llvm.lifetime.start.p0(i64 1, ptr %6) #10
  store i8 0, ptr %6, align 1, !tbaa !14
  %7 = load i8, ptr @H5D_init_g, align 1, !tbaa !14, !range !16, !noundef !17
  %8 = trunc i8 %7 to i1
  br i1 %8, label %13, label %9

9:                                                ; preds = %1
  %10 = load i8, ptr @H5_libterm_g, align 1, !tbaa !14, !range !16, !noundef !17
  %11 = trunc i8 %10 to i1
  %12 = xor i1 %11, true
  br label %13

13:                                               ; preds = %9, %1
  %14 = phi i1 [ true, %1 ], [ %12, %9 ]
  %15 = xor i1 %14, true
  %16 = xor i1 %15, true
  %17 = zext i1 %16 to i32
  %18 = sext i32 %17 to i64
  %19 = call i64 @llvm.expect.i64(i64 %18, i64 1)
  %20 = icmp ne i64 %19, 0
  br i1 %20, label %21, label %208

21:                                               ; preds = %13
  %22 = load ptr, ptr %2, align 8, !tbaa !76
  %23 = getelementptr inbounds nuw %struct.H5D_shared_t, ptr %22, i32 0, i32 8
  %24 = getelementptr inbounds nuw %struct.H5O_layout_t, ptr %23, i32 0, i32 4
  %25 = getelementptr inbounds nuw %struct.H5O_storage_t, ptr %24, i32 0, i32 1
  store ptr %25, ptr %3, align 8, !tbaa !24
  store i64 0, ptr %4, align 8, !tbaa !10
  br label %26

26:                                               ; preds = %203, %21
  %27 = load i64, ptr %4, align 8, !tbaa !10
  %28 = load ptr, ptr %3, align 8, !tbaa !24
  %29 = getelementptr inbounds nuw %struct.H5O_storage_virtual_t, ptr %28, i32 0, i32 1
  %30 = load i64, ptr %29, align 8, !tbaa !26
  %31 = icmp ult i64 %27, %30
  br i1 %31, label %32, label %206

32:                                               ; preds = %26
  %33 = load ptr, ptr %3, align 8, !tbaa !24
  %34 = getelementptr inbounds nuw %struct.H5O_storage_virtual_t, ptr %33, i32 0, i32 2
  %35 = load ptr, ptr %34, align 8, !tbaa !30
  %36 = load i64, ptr %4, align 8, !tbaa !10
  %37 = getelementptr inbounds nuw %struct.H5O_storage_virtual_ent_t, ptr %35, i64 %36
  %38 = getelementptr inbounds nuw %struct.H5O_storage_virtual_ent_t, ptr %37, i32 0, i32 11
  %39 = load i64, ptr %38, align 8, !tbaa !77
  %40 = icmp ne i64 %39, 0
  br i1 %40, label %50, label %41

41:                                               ; preds = %32
  %42 = load ptr, ptr %3, align 8, !tbaa !24
  %43 = getelementptr inbounds nuw %struct.H5O_storage_virtual_t, ptr %42, i32 0, i32 2
  %44 = load ptr, ptr %43, align 8, !tbaa !30
  %45 = load i64, ptr %4, align 8, !tbaa !10
  %46 = getelementptr inbounds nuw %struct.H5O_storage_virtual_ent_t, ptr %44, i64 %45
  %47 = getelementptr inbounds nuw %struct.H5O_storage_virtual_ent_t, ptr %46, i32 0, i32 14
  %48 = load i64, ptr %47, align 8, !tbaa !78
  %49 = icmp ne i64 %48, 0
  br i1 %49, label %50, label %143

50:                                               ; preds = %41, %32
  %51 = load ptr, ptr %3, align 8, !tbaa !24
  %52 = getelementptr inbounds nuw %struct.H5O_storage_virtual_t, ptr %51, i32 0, i32 2
  %53 = load ptr, ptr %52, align 8, !tbaa !30
  %54 = load i64, ptr %4, align 8, !tbaa !10
  %55 = getelementptr inbounds nuw %struct.H5O_storage_virtual_ent_t, ptr %53, i64 %54
  %56 = getelementptr inbounds nuw %struct.H5O_storage_virtual_ent_t, ptr %55, i32 0, i32 7
  %57 = load i64, ptr %56, align 8, !tbaa !79
  store i64 %57, ptr %5, align 8, !tbaa !10
  br label %58

58:                                               ; preds = %139, %50
  %59 = load i64, ptr %5, align 8, !tbaa !10
  %60 = load ptr, ptr %3, align 8, !tbaa !24
  %61 = getelementptr inbounds nuw %struct.H5O_storage_virtual_t, ptr %60, i32 0, i32 2
  %62 = load ptr, ptr %61, align 8, !tbaa !30
  %63 = load i64, ptr %4, align 8, !tbaa !10
  %64 = getelementptr inbounds nuw %struct.H5O_storage_virtual_ent_t, ptr %62, i64 %63
  %65 = getelementptr inbounds nuw %struct.H5O_storage_virtual_ent_t, ptr %64, i32 0, i32 8
  %66 = load i64, ptr %65, align 8, !tbaa !80
  %67 = icmp ult i64 %59, %66
  br i1 %67, label %68, label %142

68:                                               ; preds = %58
  %69 = load ptr, ptr %3, align 8, !tbaa !24
  %70 = getelementptr inbounds nuw %struct.H5O_storage_virtual_t, ptr %69, i32 0, i32 2
  %71 = load ptr, ptr %70, align 8, !tbaa !30
  %72 = load i64, ptr %4, align 8, !tbaa !10
  %73 = getelementptr inbounds nuw %struct.H5O_storage_virtual_ent_t, ptr %71, i64 %72
  %74 = getelementptr inbounds nuw %struct.H5O_storage_virtual_ent_t, ptr %73, i32 0, i32 4
  %75 = load ptr, ptr %74, align 8, !tbaa !81
  %76 = load i64, ptr %5, align 8, !tbaa !10
  %77 = getelementptr inbounds nuw %struct.H5O_storage_virtual_srcdset_t, ptr %75, i64 %76
  %78 = getelementptr inbounds nuw %struct.H5O_storage_virtual_srcdset_t, ptr %77, i32 0, i32 5
  %79 = load ptr, ptr %78, align 8, !tbaa !82
  %80 = icmp ne ptr %79, null
  br i1 %80, label %81, label %138

81:                                               ; preds = %68
  %82 = load ptr, ptr %3, align 8, !tbaa !24
  %83 = getelementptr inbounds nuw %struct.H5O_storage_virtual_t, ptr %82, i32 0, i32 2
  %84 = load ptr, ptr %83, align 8, !tbaa !30
  %85 = load i64, ptr %4, align 8, !tbaa !10
  %86 = getelementptr inbounds nuw %struct.H5O_storage_virtual_ent_t, ptr %84, i64 %85
  %87 = getelementptr inbounds nuw %struct.H5O_storage_virtual_ent_t, ptr %86, i32 0, i32 4
  %88 = load ptr, ptr %87, align 8, !tbaa !81
  %89 = load i64, ptr %5, align 8, !tbaa !10
  %90 = getelementptr inbounds nuw %struct.H5O_storage_virtual_srcdset_t, ptr %88, i64 %89
  %91 = getelementptr inbounds nuw %struct.H5O_storage_virtual_srcdset_t, ptr %90, i32 0, i32 5
  %92 = load ptr, ptr %91, align 8, !tbaa !82
  %93 = getelementptr inbounds nuw %struct.H5D_t, ptr %92, i32 0, i32 2
  %94 = load ptr, ptr %93, align 8, !tbaa !18
  %95 = getelementptr inbounds nuw %struct.H5D_shared_t, ptr %94, i32 0, i32 8
  %96 = getelementptr inbounds nuw %struct.H5O_layout_t, ptr %95, i32 0, i32 2
  %97 = load ptr, ptr %96, align 8, !tbaa !83
  %98 = getelementptr inbounds nuw %struct.H5D_layout_ops_t, ptr %97, i32 0, i32 3
  %99 = load ptr, ptr %98, align 8, !tbaa !84
  %100 = icmp ne ptr %99, null
  br i1 %100, label %101, label %138

101:                                              ; preds = %81
  %102 = load ptr, ptr %3, align 8, !tbaa !24
  %103 = getelementptr inbounds nuw %struct.H5O_storage_virtual_t, ptr %102, i32 0, i32 2
  %104 = load ptr, ptr %103, align 8, !tbaa !30
  %105 = load i64, ptr %4, align 8, !tbaa !10
  %106 = getelementptr inbounds nuw %struct.H5O_storage_virtual_ent_t, ptr %104, i64 %105
  %107 = getelementptr inbounds nuw %struct.H5O_storage_virtual_ent_t, ptr %106, i32 0, i32 4
  %108 = load ptr, ptr %107, align 8, !tbaa !81
  %109 = load i64, ptr %5, align 8, !tbaa !10
  %110 = getelementptr inbounds nuw %struct.H5O_storage_virtual_srcdset_t, ptr %108, i64 %109
  %111 = getelementptr inbounds nuw %struct.H5O_storage_virtual_srcdset_t, ptr %110, i32 0, i32 5
  %112 = load ptr, ptr %111, align 8, !tbaa !82
  %113 = getelementptr inbounds nuw %struct.H5D_t, ptr %112, i32 0, i32 2
  %114 = load ptr, ptr %113, align 8, !tbaa !18
  %115 = getelementptr inbounds nuw %struct.H5D_shared_t, ptr %114, i32 0, i32 8
  %116 = getelementptr inbounds nuw %struct.H5O_layout_t, ptr %115, i32 0, i32 2
  %117 = load ptr, ptr %116, align 8, !tbaa !83
  %118 = getelementptr inbounds nuw %struct.H5D_layout_ops_t, ptr %117, i32 0, i32 3
  %119 = load ptr, ptr %118, align 8, !tbaa !84
  %120 = load ptr, ptr %3, align 8, !tbaa !24
  %121 = getelementptr inbounds nuw %struct.H5O_storage_virtual_t, ptr %120, i32 0, i32 2
  %122 = load ptr, ptr %121, align 8, !tbaa !30
  %123 = load i64, ptr %4, align 8, !tbaa !10
  %124 = getelementptr inbounds nuw %struct.H5O_storage_virtual_ent_t, ptr %122, i64 %123
  %125 = getelementptr inbounds nuw %struct.H5O_storage_virtual_ent_t, ptr %124, i32 0, i32 4
  %126 = load ptr, ptr %125, align 8, !tbaa !81
  %127 = load i64, ptr %5, align 8, !tbaa !10
  %128 = getelementptr inbounds nuw %struct.H5O_storage_virtual_srcdset_t, ptr %126, i64 %127
  %129 = getelementptr inbounds nuw %struct.H5O_storage_virtual_srcdset_t, ptr %128, i32 0, i32 5
  %130 = load ptr, ptr %129, align 8, !tbaa !82
  %131 = getelementptr inbounds nuw %struct.H5D_t, ptr %130, i32 0, i32 2
  %132 = load ptr, ptr %131, align 8, !tbaa !18
  %133 = call zeroext i1 %119(ptr noundef %132)
  br i1 %133, label %134, label %138

134:                                              ; preds = %101
  br label %135

135:                                              ; preds = %134
  store i8 1, ptr %6, align 1, !tbaa !14
  br label %207

136:                                              ; No predecessors!
  br label %137

137:                                              ; preds = %136
  br label %138

138:                                              ; preds = %137, %101, %81, %68
  br label %139

139:                                              ; preds = %138
  %140 = load i64, ptr %5, align 8, !tbaa !10
  %141 = add i64 %140, 1
  store i64 %141, ptr %5, align 8, !tbaa !10
  br label %58, !llvm.loop !86

142:                                              ; preds = %58
  br label %202

143:                                              ; preds = %41
  %144 = load ptr, ptr %3, align 8, !tbaa !24
  %145 = getelementptr inbounds nuw %struct.H5O_storage_virtual_t, ptr %144, i32 0, i32 2
  %146 = load ptr, ptr %145, align 8, !tbaa !30
  %147 = load i64, ptr %4, align 8, !tbaa !10
  %148 = getelementptr inbounds nuw %struct.H5O_storage_virtual_ent_t, ptr %146, i64 %147
  %149 = getelementptr inbounds nuw %struct.H5O_storage_virtual_ent_t, ptr %148, i32 0, i32 0
  %150 = getelementptr inbounds nuw %struct.H5O_storage_virtual_srcdset_t, ptr %149, i32 0, i32 5
  %151 = load ptr, ptr %150, align 8, !tbaa !87
  %152 = icmp ne ptr %151, null
  br i1 %152, label %153, label %201

153:                                              ; preds = %143
  %154 = load ptr, ptr %3, align 8, !tbaa !24
  %155 = getelementptr inbounds nuw %struct.H5O_storage_virtual_t, ptr %154, i32 0, i32 2
  %156 = load ptr, ptr %155, align 8, !tbaa !30
  %157 = load i64, ptr %4, align 8, !tbaa !10
  %158 = getelementptr inbounds nuw %struct.H5O_storage_virtual_ent_t, ptr %156, i64 %157
  %159 = getelementptr inbounds nuw %struct.H5O_storage_virtual_ent_t, ptr %158, i32 0, i32 0
  %160 = getelementptr inbounds nuw %struct.H5O_storage_virtual_srcdset_t, ptr %159, i32 0, i32 5
  %161 = load ptr, ptr %160, align 8, !tbaa !87
  %162 = getelementptr inbounds nuw %struct.H5D_t, ptr %161, i32 0, i32 2
  %163 = load ptr, ptr %162, align 8, !tbaa !18
  %164 = getelementptr inbounds nuw %struct.H5D_shared_t, ptr %163, i32 0, i32 8
  %165 = getelementptr inbounds nuw %struct.H5O_layout_t, ptr %164, i32 0, i32 2
  %166 = load ptr, ptr %165, align 8, !tbaa !83
  %167 = getelementptr inbounds nuw %struct.H5D_layout_ops_t, ptr %166, i32 0, i32 3
  %168 = load ptr, ptr %167, align 8, !tbaa !84
  %169 = icmp ne ptr %168, null
  br i1 %169, label %170, label %201

170:                                              ; preds = %153
  %171 = load ptr, ptr %3, align 8, !tbaa !24
  %172 = getelementptr inbounds nuw %struct.H5O_storage_virtual_t, ptr %171, i32 0, i32 2
  %173 = load ptr, ptr %172, align 8, !tbaa !30
  %174 = load i64, ptr %4, align 8, !tbaa !10
  %175 = getelementptr inbounds nuw %struct.H5O_storage_virtual_ent_t, ptr %173, i64 %174
  %176 = getelementptr inbounds nuw %struct.H5O_storage_virtual_ent_t, ptr %175, i32 0, i32 0
  %177 = getelementptr inbounds nuw %struct.H5O_storage_virtual_srcdset_t, ptr %176, i32 0, i32 5
  %178 = load ptr, ptr %177, align 8, !tbaa !87
  %179 = getelementptr inbounds nuw %struct.H5D_t, ptr %178, i32 0, i32 2
  %180 = load ptr, ptr %179, align 8, !tbaa !18
  %181 = getelementptr inbounds nuw %struct.H5D_shared_t, ptr %180, i32 0, i32 8
  %182 = getelementptr inbounds nuw %struct.H5O_layout_t, ptr %181, i32 0, i32 2
  %183 = load ptr, ptr %182, align 8, !tbaa !83
  %184 = getelementptr inbounds nuw %struct.H5D_layout_ops_t, ptr %183, i32 0, i32 3
  %185 = load ptr, ptr %184, align 8, !tbaa !84
  %186 = load ptr, ptr %3, align 8, !tbaa !24
  %187 = getelementptr inbounds nuw %struct.H5O_storage_virtual_t, ptr %186, i32 0, i32 2
  %188 = load ptr, ptr %187, align 8, !tbaa !30
  %189 = load i64, ptr %4, align 8, !tbaa !10
  %190 = getelementptr inbounds nuw %struct.H5O_storage_virtual_ent_t, ptr %188, i64 %189
  %191 = getelementptr inbounds nuw %struct.H5O_storage_virtual_ent_t, ptr %190, i32 0, i32 0
  %192 = getelementptr inbounds nuw %struct.H5O_storage_virtual_srcdset_t, ptr %191, i32 0, i32 5
  %193 = load ptr, ptr %192, align 8, !tbaa !87
  %194 = getelementptr inbounds nuw %struct.H5D_t, ptr %193, i32 0, i32 2
  %195 = load ptr, ptr %194, align 8, !tbaa !18
  %196 = call zeroext i1 %185(ptr noundef %195)
  br i1 %196, label %197, label %201

197:                                              ; preds = %170
  br label %198

198:                                              ; preds = %197
  store i8 1, ptr %6, align 1, !tbaa !14
  br label %207

199:                                              ; No predecessors!
  br label %200

200:                                              ; preds = %199
  br label %201

201:                                              ; preds = %200, %170, %153, %143
  br label %202

202:                                              ; preds = %201, %142
  br label %203

203:                                              ; preds = %202
  %204 = load i64, ptr %4, align 8, !tbaa !10
  %205 = add i64 %204, 1
  store i64 %205, ptr %4, align 8, !tbaa !10
  br label %26, !llvm.loop !88

206:                                              ; preds = %26
  br label %207

207:                                              ; preds = %206, %198, %135
  br label %208

208:                                              ; preds = %207, %13
  %209 = load i8, ptr %6, align 1, !tbaa !14, !range !16, !noundef !17
  %210 = trunc i8 %209 to i1
  call void @llvm.lifetime.end.p0(i64 1, ptr %6) #10
  call void @llvm.lifetime.end.p0(i64 8, ptr %5) #10
  call void @llvm.lifetime.end.p0(i64 8, ptr %4) #10
  call void @llvm.lifetime.end.p0(i64 8, ptr %3) #10
  ret i1 %210
}