; Function Attrs: nounwind uwtable
define internal noundef zeroext i1 @H5D__virtual_is_data_cached(ptr noundef readonly captures(none) %0) #0 {
  %2 = load i8, ptr @H5D_init_g, align 1, !tbaa !3, !range !7, !noundef !8
  %3 = trunc nuw i8 %2 to i1
  %4 = load i8, ptr @H5_libterm_g, align 1, !range !7
  %5 = trunc nuw i8 %4 to i1
  %6 = xor i1 %5, true
  %7 = select i1 %3, i1 true, i1 %6
  br i1 %7, label %.preheader, label %.loopexit45, !prof !9

.preheader:                                       ; preds = %1
  %8 = getelementptr inbounds nuw i8, ptr %0, i64 2184
  %9 = load i64, ptr %8, align 8, !tbaa !20
  %.not53 = icmp eq i64 %9, 0
  br i1 %.not53, label %.loopexit45, label %.lr.ph50

.lr.ph50:                                         ; preds = %.preheader
  %10 = getelementptr inbounds nuw i8, ptr %0, i64 2192
  br label %11

11:                                               ; preds = %.lr.ph50, %.loopexit
  %.03548 = phi i64 [ 0, %.lr.ph50 ], [ %57, %.loopexit ]
  %12 = load ptr, ptr %10, align 8, !tbaa !27
  %13 = getelementptr inbounds nuw %struct.H5O_storage_virtual_ent_t, ptr %12, i64 %.03548
  %14 = getelementptr inbounds nuw i8, ptr %13, i64 144
  %15 = load i64, ptr %14, align 8, !tbaa !69
  %.not = icmp eq i64 %15, 0
  br i1 %.not, label %16, label %19

16:                                               ; preds = %11
  %17 = getelementptr inbounds nuw i8, ptr %13, i64 168
  %18 = load i64, ptr %17, align 8, !tbaa !70
  %.not40 = icmp eq i64 %18, 0
  br i1 %.not40, label %45, label %19

19:                                               ; preds = %16, %11
  %20 = getelementptr inbounds nuw %struct.H5O_storage_virtual_ent_t, ptr %12, i64 %.03548, i32 7
  %21 = load i64, ptr %20, align 8, !tbaa !71
  %22 = getelementptr inbounds nuw %struct.H5O_storage_virtual_ent_t, ptr %12, i64 %.03548, i32 8
  %23 = load i64, ptr %22, align 8, !tbaa !72
  %24 = icmp ult i64 %21, %23
  br i1 %24, label %.lr.ph, label %.loopexit

.lr.ph:                                           ; preds = %19, %39
  %25 = phi ptr [ %40, %39 ], [ %12, %19 ]
  %.03447 = phi i64 [ %41, %39 ], [ %21, %19 ]
  %26 = getelementptr inbounds nuw %struct.H5O_storage_virtual_ent_t, ptr %25, i64 %.03548, i32 4
  %27 = load ptr, ptr %26, align 8, !tbaa !73
  %28 = getelementptr inbounds nuw %struct.H5O_storage_virtual_srcdset_t, ptr %27, i64 %.03447, i32 5
  %29 = load ptr, ptr %28, align 8, !tbaa !74
  %.not43 = icmp eq ptr %29, null
  br i1 %.not43, label %39, label %30

30:                                               ; preds = %.lr.ph
  %31 = getelementptr inbounds nuw i8, ptr %29, i64 48
  %32 = load ptr, ptr %31, align 8, !tbaa !10
  %33 = getelementptr inbounds nuw i8, ptr %32, i64 256
  %34 = load ptr, ptr %33, align 8, !tbaa !75
  %35 = getelementptr inbounds nuw i8, ptr %34, i64 24
  %36 = load ptr, ptr %35, align 8, !tbaa !76
  %.not44 = icmp eq ptr %36, null
  br i1 %.not44, label %39, label %37

37:                                               ; preds = %30
  %38 = tail call zeroext i1 %36(ptr noundef nonnull %32) #14
  br i1 %38, label %.loopexit45, label %._crit_edge

._crit_edge:                                      ; preds = %37
  %.pre = load ptr, ptr %10, align 8, !tbaa !27
  br label %39

39:                                               ; preds = %._crit_edge, %.lr.ph, %30
  %40 = phi ptr [ %.pre, %._crit_edge ], [ %25, %.lr.ph ], [ %25, %30 ]
  %41 = add nuw i64 %.03447, 1
  %42 = getelementptr inbounds nuw %struct.H5O_storage_virtual_ent_t, ptr %40, i64 %.03548, i32 8
  %43 = load i64, ptr %42, align 8, !tbaa !72
  %44 = icmp ult i64 %41, %43
  br i1 %44, label %.lr.ph, label %.loopexit, !llvm.loop !78

45:                                               ; preds = %16
  %46 = getelementptr inbounds nuw i8, ptr %13, i64 40
  %47 = load ptr, ptr %46, align 8, !tbaa !79
  %.not41 = icmp eq ptr %47, null
  br i1 %.not41, label %.loopexit, label %48

48:                                               ; preds = %45
  %49 = getelementptr inbounds nuw i8, ptr %47, i64 48
  %50 = load ptr, ptr %49, align 8, !tbaa !10
  %51 = getelementptr inbounds nuw i8, ptr %50, i64 256
  %52 = load ptr, ptr %51, align 8, !tbaa !75
  %53 = getelementptr inbounds nuw i8, ptr %52, i64 24
  %54 = load ptr, ptr %53, align 8, !tbaa !76
  %.not42 = icmp eq ptr %54, null
  br i1 %.not42, label %.loopexit, label %55

55:                                               ; preds = %48
  %56 = tail call zeroext i1 %54(ptr noundef nonnull %50) #14
  br i1 %56, label %.loopexit45, label %.loopexit

.loopexit:                                        ; preds = %39, %19, %55, %48, %45
  %57 = add nuw i64 %.03548, 1
  %58 = load i64, ptr %8, align 8, !tbaa !20
  %59 = icmp ult i64 %57, %58
  br i1 %59, label %11, label %.loopexit45, !llvm.loop !80

.loopexit45:                                      ; preds = %.loopexit, %55, %37, %.preheader, %1
  %.0 = phi i1 [ false, %1 ], [ false, %.preheader ], [ true, %37 ], [ false, %.loopexit ], [ true, %55 ]
  ret i1 %.0
}